target datalayout = "e-m:e-p270:32:32-p271:32:32-p272:64:64-i64:64-i128:128-f80:128-n8:16:32:64-S128"
target triple = "x86_64-pc-linux-gnu"

%"class.llvm::SmallVectorBase" = type { ptr, i32, i32 }
%"class.clang::SourceLocation" = type { i32 }
%"class.clang::format::(anonymous namespace)::LineFormatter" = type { ptr, ptr, ptr, ptr, ptr }
%"class.llvm::SmallVectorImpl" = type { %"class.llvm::SmallVectorTemplateBase" }
%"class.llvm::SmallVectorTemplateBase" = type { %"class.llvm::SmallVectorTemplateCommon" }
%"class.llvm::SmallVectorTemplateCommon" = type { %"class.llvm::SmallVectorBase" }
%"struct.clang::format::FormatToken" = type <{ %"class.clang::Token", %"class.llvm::StringRef", %"class.std::shared_ptr.29", %"class.clang::SourceRange", i8, i16, i8, i32, i32, i32, i32, i32, i32, i32, i32, i32, i16, [2 x i8], i32, i32, i32, i32, i32, i32, i32, i32, i32, i32, [4 x i8], %"class.llvm::SmallVector.32", i32, i32, ptr, ptr, ptr, ptr, i8, i8, i8, i8, i8, i8, [2 x i8], %"class.llvm::SmallVector.37", %"class.std::optional.39", i8, [7 x i8] }>
%"class.clang::Token" = type <{ i32, i32, ptr, i16, i16, [4 x i8] }>
%"class.llvm::StringRef" = type { ptr, i64 }
%"class.std::shared_ptr.29" = type { %"class.std::__shared_ptr.30" }
%"class.std::__shared_ptr.30" = type { ptr, %"class.std::__shared_count" }
%"class.std::__shared_count" = type { ptr }
%"class.clang::SourceRange" = type { %"class.clang::SourceLocation", %"class.clang::SourceLocation" }
%"class.llvm::SmallVector.32" = type { %"class.llvm::SmallVectorImpl.33", %"struct.llvm::SmallVectorStorage.36" }
%"class.llvm::SmallVectorImpl.33" = type { %"class.llvm::SmallVectorTemplateBase.34" }
%"class.llvm::SmallVectorTemplateBase.34" = type { %"class.llvm::SmallVectorTemplateCommon.35" }
%"class.llvm::SmallVectorTemplateCommon.35" = type { %"class.llvm::SmallVectorBase" }
%"struct.llvm::SmallVectorStorage.36" = type { [16 x i8] }
%"class.llvm::SmallVector.37" = type { %"class.llvm::SmallVectorImpl", %"struct.llvm::SmallVectorStorage.38" }
%"struct.llvm::SmallVectorStorage.38" = type { [8 x i8] }
%"class.std::optional.39" = type { %"struct.std::_Optional_base.40" }
%"struct.std::_Optional_base.40" = type { %"struct.std::_Optional_payload.42" }
%"struct.std::_Optional_payload.42" = type { %"struct.std::_Optional_payload.base.51", [7 x i8] }
%"struct.std::_Optional_payload.base.51" = type { %"struct.std::_Optional_payload_base.base.50" }
%"struct.std::_Optional_payload_base.base.50" = type <{ %"union.std::_Optional_payload_base<clang::format::MacroExpansion>::_Storage", i8 }>
%"union.std::_Optional_payload_base<clang::format::MacroExpansion>::_Storage" = type { %"struct.clang::format::MacroExpansion" }
%"struct.clang::format::MacroExpansion" = type { i32, %"class.llvm::SmallVector.45", i32, i32 }
%"class.llvm::SmallVector.45" = type { %"class.llvm::SmallVectorImpl.46", %"struct.llvm::SmallVectorStorage.49" }
%"class.llvm::SmallVectorImpl.46" = type { %"class.llvm::SmallVectorTemplateBase.47" }
%"class.llvm::SmallVectorTemplateBase.47" = type { %"class.llvm::SmallVectorTemplateCommon.48" }
%"class.llvm::SmallVectorTemplateCommon.48" = type { %"class.llvm::SmallVectorBase" }
%"struct.llvm::SmallVectorStorage.49" = type { [8 x i8] }
%"struct.clang::format::LineState" = type { i32, ptr, i8, i32, i32, i32, i8, %"class.llvm::SmallVector.152", i8, i32, ptr }
%"class.llvm::SmallVector.152" = type { %"class.llvm::SmallVectorImpl.153", %"struct.llvm::SmallVectorStorage.156" }
%"class.llvm::SmallVectorImpl.153" = type { %"class.llvm::SmallVectorTemplateBase.154" }
%"class.llvm::SmallVectorTemplateBase.154" = type { %"class.llvm::SmallVectorTemplateCommon.155" }
%"class.llvm::SmallVectorTemplateCommon.155" = type { %"class.llvm::SmallVectorBase" }
%"struct.llvm::SmallVectorStorage.156" = type { [56 x i8] }
%"struct.clang::format::ParenState" = type <{ ptr, i32, i32, i32, i32, i32, i32, i32, i32, i32, i32, i32, i16, i8, i8 }>

; Function Attrs: mustprogress nounwind uwtable
define linkonce_odr hidden noundef ptr @_ZNK4llvm25SmallVectorTemplateCommonIN5clang6format10ParenStateEvE10getFirstElEv(ptr noundef nonnull align 8 dereferenceable(16) %0) #0 comdat align 2 {
  %2 = alloca ptr, align 8
  store ptr %0, ptr %2, align 8
  %3 = load ptr, ptr %2, align 8
  %4 = getelementptr inbounds i8, ptr %3, i64 16
  ret ptr %4
}

; Function Attrs: mustprogress nounwind uwtable
define linkonce_odr hidden noundef zeroext i1 @_ZNK4llvm25SmallVectorTemplateCommonIN5clang6format10ParenStateEvE7isSmallEv(ptr noundef nonnull align 8 dereferenceable(16) %0) #0 comdat align 2 {
  %2 = alloca ptr, align 8
  store ptr %0, ptr %2, align 8
  %3 = load ptr, ptr %2, align 8
  %4 = getelementptr inbounds nuw %"class.llvm::SmallVectorBase", ptr %3, i32 0, i32 0
  %5 = load ptr, ptr %4, align 8
  %6 = call noundef ptr @_ZNK4llvm25SmallVectorTemplateCommonIN5clang6format10ParenStateEvE10getFirstElEv(ptr noundef nonnull align 8 dereferenceable(16) %3)
  %7 = icmp eq ptr %5, %6
  ret i1 %7
}

; Function Attrs: mustprogress nounwind uwtable
define linkonce_odr hidden void @_ZN4llvm15SmallVectorImplIN5clang6format10ParenStateEED2Ev(ptr noundef nonnull align 8 dereferenceable(16) %0) unnamed_addr #0 comdat align 2 {
  %2 = alloca ptr, align 8
  store ptr %0, ptr %2, align 8
  %3 = load ptr, ptr %2, align 8
  %4 = call noundef zeroext i1 @_ZNK4llvm25SmallVectorTemplateCommonIN5clang6format10ParenStateEvE7isSmallEv(ptr noundef nonnull align 8 dereferenceable(16) %3)
  br i1 %4, label %7, label %5

5:                                                ; preds = %1
  %6 = call noundef ptr @_ZN4llvm25SmallVectorTemplateCommonIN5clang6format10ParenStateEvE5beginEv(ptr noundef nonnull align 8 dereferenceable(16) %3)
  call void @free(ptr noundef %6) #12
  br label %7

7:                                                ; preds = %5, %1
  ret void
}

; Function Attrs: mustprogress nounwind uwtable
define linkonce_odr hidden void @_ZN4llvm23SmallVectorTemplateBaseIN5clang6format10ParenStateELb1EE13destroy_rangeEPS3_S5_(ptr noundef %0, ptr noundef %1) #0 comdat align 2 {
  %3 = alloca ptr, align 8
  %4 = alloca ptr, align 8
  store ptr %0, ptr %3, align 8
  store ptr %1, ptr %4, align 8
  ret void
}

; Function Attrs: mustprogress nounwind uwtable
define linkonce_odr hidden noundef ptr @_ZN4llvm25SmallVectorTemplateCommonIN5clang6format10ParenStateEvE3endEv(ptr noundef nonnull align 8 dereferenceable(16) %0) #0 comdat align 2 {
  %2 = alloca ptr, align 8
  store ptr %0, ptr %2, align 8
  %3 = load ptr, ptr %2, align 8
  %4 = call noundef ptr @_ZN4llvm25SmallVectorTemplateCommonIN5clang6format10ParenStateEvE5beginEv(ptr noundef nonnull align 8 dereferenceable(16) %3)
  %5 = call noundef i64 @_ZNK4llvm15SmallVectorBaseIjE4sizeEv(ptr noundef nonnull align 8 dereferenceable(16) %3)
  %6 = getelementptr inbounds %"struct.clang::format::ParenState", ptr %4, i64 %5
  ret ptr %6
}

; Function Attrs: mustprogress nounwind uwtable
define linkonce_odr hidden noundef ptr @_ZN4llvm25SmallVectorTemplateCommonIN5clang6format10ParenStateEvE5beginEv(ptr noundef nonnull align 8 dereferenceable(16) %0) #0 comdat align 2 {
  %2 = alloca ptr, align 8
  store ptr %0, ptr %2, align 8
  %3 = load ptr, ptr %2, align 8
  %4 = getelementptr inbounds nuw %"class.llvm::SmallVectorBase", ptr %3, i32 0, i32 0
  %5 = load ptr, ptr %4, align 8
  ret ptr %5
}

; Function Attrs: mustprogress nounwind uwtable
define linkonce_odr hidden void @_ZN4llvm11SmallVectorIN5clang6format10ParenStateELj1EED2Ev(ptr noundef nonnull align 8 dereferenceable(72) %0) unnamed_addr #0 comdat align 2 {
  %2 = alloca ptr, align 8
  store ptr %0, ptr %2, align 8
  %3 = load ptr, ptr %2, align 8
  %4 = call noundef ptr @_ZN4llvm25SmallVectorTemplateCommonIN5clang6format10ParenStateEvE5beginEv(ptr noundef nonnull align 8 dereferenceable(16) %3)
  %5 = call noundef ptr @_ZN4llvm25SmallVectorTemplateCommonIN5clang6format10ParenStateEvE3endEv(ptr noundef nonnull align 8 dereferenceable(16) %3)
  call void @_ZN4llvm23SmallVectorTemplateBaseIN5clang6format10ParenStateELb1EE13destroy_rangeEPS3_S5_(ptr noundef %4, ptr noundef %5)
  call void @_ZN4llvm15SmallVectorImplIN5clang6format10ParenStateEED2Ev(ptr noundef nonnull align 8 dereferenceable(16) %3) #12
  ret void
}

; Function Attrs: mustprogress nounwind uwtable
define linkonce_odr hidden void @_ZN5clang6format9LineStateD2Ev(ptr noundef nonnull align 8 dereferenceable(128) %0) unnamed_addr #0 comdat align 2 {
  %2 = alloca ptr, align 8
  store ptr %0, ptr %2, align 8
  %3 = load ptr, ptr %2, align 8
  %4 = getelementptr inbounds nuw %"struct.clang::format::LineState", ptr %3, i32 0, i32 7
  call void @_ZN4llvm11SmallVectorIN5clang6format10ParenStateELj1EED2Ev(ptr noundef nonnull align 8 dereferenceable(72) %4) #12
  ret void
}

; Function Attrs: mustprogress nounwind uwtable
define internal noundef i32 @_ZN5clang6format12_GLOBAL__N_126NoColumnLimitLineFormatter10formatLineERKNS0_13AnnotatedLineEjjb(ptr noundef nonnull align 8 dereferenceable(40) %0, ptr noundef nonnull align 8 dereferenceable(80) %1, i32 noundef %2, i32 noundef %3, i1 noundef zeroext %4) unnamed_addr #0 align 2 {
  %6 = alloca ptr, align 8
  %7 = alloca ptr, align 8
  %8 = alloca i32, align 4
  %9 = alloca i32, align 4
  %10 = alloca i8, align 1
  %11 = alloca %"struct.clang::format::LineState", align 8
  %12 = alloca i8, align 1
  %13 = alloca i32, align 4
  store ptr %0, ptr %6, align 8
  store ptr %1, ptr %7, align 8
  store i32 %2, ptr %8, align 4
  store i32 %3, ptr %9, align 4
  %14 = zext i1 %4 to i8
  store i8 %14, ptr %10, align 1
  %15 = load ptr, ptr %6, align 8
  %16 = getelementptr inbounds nuw %"class.clang::format::(anonymous namespace)::LineFormatter", ptr %15, i32 0, i32 1
  %17 = load ptr, ptr %16, align 8
  %18 = load i32, ptr %8, align 4
  %19 = load i32, ptr %9, align 4
  %20 = load ptr, ptr %7, align 8
  call void @_ZN5clang6format20ContinuationIndenter15getInitialStateEjjPKNS0_13AnnotatedLineEb(ptr dead_on_unwind writable sret(%"struct.clang::format::LineState") align 8 %11, ptr noundef nonnull align 8 dereferenceable(1032) %17, i32 noundef %18, i32 noundef %19, ptr noundef %20, i1 noundef zeroext false)
  br label %21

21:                                               ; preds = %41, %5
  %22 = getelementptr inbounds nuw %"struct.clang::format::LineState", ptr %11, i32 0, i32 1
  %23 = load ptr, ptr %22, align 8
  %24 = icmp ne ptr %23, null
  br i1 %24, label %25, label %52

25:                                               ; preds = %21
  %26 = getelementptr inbounds nuw %"class.clang::format::(anonymous namespace)::LineFormatter", ptr %15, i32 0, i32 1
  %27 = load ptr, ptr %26, align 8
  %28 = call noundef zeroext i1 @_ZN5clang6format20ContinuationIndenter9mustBreakERKNS0_9LineStateE(ptr noundef nonnull align 8 dereferenceable(1032) %27, ptr noundef nonnull align 8 dereferenceable(128) %11)
  br i1 %28, label %41, label %29

29:                                               ; preds = %25
  %30 = getelementptr inbounds nuw %"class.clang::format::(anonymous namespace)::LineFormatter", ptr %15, i32 0, i32 1
  %31 = load ptr, ptr %30, align 8
  %32 = call noundef zeroext i1 @_ZN5clang6format20ContinuationIndenter8canBreakERKNS0_9LineStateE(ptr noundef nonnull align 8 dereferenceable(1032) %31, ptr noundef nonnull align 8 dereferenceable(128) %11)
  br i1 %32, label %33, label %39

33:                                               ; preds = %29
  %34 = getelementptr inbounds nuw %"struct.clang::format::LineState", ptr %11, i32 0, i32 1
  %35 = load ptr, ptr %34, align 8
  %36 = getelementptr inbounds nuw %"struct.clang::format::FormatToken", ptr %35, i32 0, i32 8
  %37 = load i32, ptr %36, align 8
  %38 = icmp ugt i32 %37, 0
  br label %39

39:                                               ; preds = %33, %29
  %40 = phi i1 [ false, %29 ], [ %38, %33 ]
  br label %41

41:                                               ; preds = %39, %25
  %42 = phi i1 [ true, %25 ], [ %40, %39 ]
  %43 = zext i1 %42 to i8
  store i8 %43, ptr %12, align 1
  store i32 0, ptr %13, align 4
  %44 = load i8, ptr %12, align 1
  %45 = trunc i8 %44 to i1
  %46 = call noundef zeroext i1 @_ZN5clang6format12_GLOBAL__N_113LineFormatter14formatChildrenERNS0_9LineStateEbbRj(ptr noundef nonnull align 8 dereferenceable(40) %15, ptr noundef nonnull align 8 dereferenceable(128) %11, i1 noundef zeroext %45, i1 noundef zeroext false, ptr noundef nonnull align 4 dereferenceable(4) %13)
  %47 = getelementptr inbounds nuw %"class.clang::format::(anonymous namespace)::LineFormatter", ptr %15, i32 0, i32 1
  %48 = load ptr, ptr %47, align 8
  %49 = load i8, ptr %12, align 1
  %50 = trunc i8 %49 to i1
  %51 = call noundef i32 @_ZN5clang6format20ContinuationIndenter15addTokenToStateERNS0_9LineStateEbbj(ptr noundef nonnull align 8 dereferenceable(1032) %48, ptr noundef nonnull align 8 dereferenceable(128) %11, i1 noundef zeroext %50, i1 noundef zeroext false, i32 noundef 0)
  br label %21, !llvm.loop !11

52:                                               ; preds = %21
  call void @_ZN5clang6format9LineStateD2Ev(ptr noundef nonnull align 8 dereferenceable(128) %11) #12
  ret i32 0
}