; Function Attrs: mustprogress nounwind uwtable
define internal noundef i32 @_ZN5clang6format12_GLOBAL__N_126NoColumnLimitLineFormatter10formatLineERKNS0_13AnnotatedLineEjjb(ptr noundef nonnull align 8 dereferenceable(40) %0, ptr noundef nonnull align 8 dereferenceable(80) %1, i32 noundef %2, i32 noundef %3, i1 zeroext %4) unnamed_addr #0 align 2 {
  %6 = alloca %"struct.clang::format::LineState", align 8
  %7 = alloca i32, align 4
  %8 = getelementptr inbounds nuw i8, ptr %0, i64 8
  %9 = load ptr, ptr %8, align 8
  call void @_ZN5clang6format20ContinuationIndenter15getInitialStateEjjPKNS0_13AnnotatedLineEb(ptr dead_on_unwind nonnull writable sret(%"struct.clang::format::LineState") align 8 %6, ptr noundef nonnull align 8 dereferenceable(1032) %9, i32 noundef %2, i32 noundef %3, ptr noundef nonnull %1, i1 noundef zeroext false) #15
  %10 = getelementptr inbounds nuw i8, ptr %6, i64 8
  %11 = load ptr, ptr %10, align 8
  %.not5 = icmp eq ptr %11, null
  br i1 %.not5, label %._crit_edge, label %.lr.ph

.lr.ph:                                           ; preds = %5, %22
  %12 = load ptr, ptr %8, align 8
  %13 = call noundef zeroext i1 @_ZN5clang6format20ContinuationIndenter9mustBreakERKNS0_9LineStateE(ptr noundef nonnull align 8 dereferenceable(1032) %12, ptr noundef nonnull align 8 dereferenceable(128) %6) #15
  br i1 %13, label %22, label %14

14:                                               ; preds = %.lr.ph
  %15 = load ptr, ptr %8, align 8
  %16 = call noundef zeroext i1 @_ZN5clang6format20ContinuationIndenter8canBreakERKNS0_9LineStateE(ptr noundef nonnull align 8 dereferenceable(1032) %15, ptr noundef nonnull align 8 dereferenceable(128) %6) #15
  br i1 %16, label %17, label %22

17:                                               ; preds = %14
  %18 = load ptr, ptr %10, align 8
  %19 = getelementptr inbounds nuw i8, ptr %18, i64 72
  %20 = load i32, ptr %19, align 8
  %21 = icmp ne i32 %20, 0
  br label %22

22:                                               ; preds = %14, %17, %.lr.ph
  %23 = phi i1 [ true, %.lr.ph ], [ false, %14 ], [ %21, %17 ]
  store i32 0, ptr %7, align 4
  %24 = call fastcc noundef zeroext i1 @_ZN5clang6format12_GLOBAL__N_113LineFormatter14formatChildrenERNS0_9LineStateEbbRj(ptr noundef nonnull align 8 dereferenceable(40) %0, ptr noundef nonnull align 8 dereferenceable(128) %6, i1 noundef zeroext %23, i1 noundef zeroext false, ptr noundef nonnull align 4 dereferenceable(4) %7)
  %25 = load ptr, ptr %8, align 8
  %26 = call noundef i32 @_ZN5clang6format20ContinuationIndenter15addTokenToStateERNS0_9LineStateEbbj(ptr noundef nonnull align 8 dereferenceable(1032) %25, ptr noundef nonnull align 8 dereferenceable(128) %6, i1 noundef zeroext %23, i1 noundef zeroext false, i32 noundef 0) #15
  %27 = load ptr, ptr %10, align 8
  %.not = icmp eq ptr %27, null
  br i1 %.not, label %._crit_edge, label %.lr.ph, !llvm.loop !23

._crit_edge:                                      ; preds = %22, %5
  %28 = getelementptr inbounds nuw i8, ptr %6, i64 40
  %29 = call noundef i64 @_ZNK4llvm15SmallVectorBaseIjE4sizeEv(ptr noundef nonnull align 8 dereferenceable(72) %28) #15
  %30 = load ptr, ptr %28, align 8
  %31 = getelementptr inbounds nuw i8, ptr %6, i64 56
  %32 = icmp eq ptr %30, %31
  br i1 %32, label %_ZN5clang6format9LineStateD2Ev.exit, label %33

33:                                               ; preds = %._crit_edge
  call void @free(ptr noundef %30) #15
  br label %_ZN5clang6format9LineStateD2Ev.exit

_ZN5clang6format9LineStateD2Ev.exit:              ; preds = %._crit_edge, %33
  ret i32 0
}